; Function Attrs: mustprogress uwtable
define hidden void @_ZN3smt12theory_array16apply_sort_cnstrEPNS_5enodeEP4sort(ptr noundef nonnull align 8 dereferenceable(444) %0, ptr noundef nonnull %1, ptr readnone captures(none) %2) unnamed_addr #4 align 2 {
  %4 = getelementptr inbounds nuw i8, ptr %0, i64 8
  %5 = load i32, ptr %4, align 8, !tbaa !600
  %6 = tail call noundef i32 @_ZNK3smt5enode10get_th_varEi(ptr noundef nonnull align 8 dereferenceable(112) %1, i32 noundef %5)
  %.not.i = icmp eq i32 %6, -1
  br i1 %.not.i, label %_ZNK3smt6theory18is_attached_to_varEPKNS_5enodeE.exit.thread, label %_ZNK3smt6theory18is_attached_to_varEPKNS_5enodeE.exit

_ZNK3smt6theory18is_attached_to_varEPKNS_5enodeE.exit: ; preds = %3
  %7 = getelementptr inbounds nuw i8, ptr %0, i64 32
  %8 = load ptr, ptr %7, align 8, !tbaa !550
  %9 = zext i32 %6 to i64
  %10 = getelementptr inbounds nuw ptr, ptr %8, i64 %9
  %11 = load ptr, ptr %10, align 8, !tbaa !570
  %12 = icmp eq ptr %11, %1
  br i1 %12, label %16, label %_ZNK3smt6theory18is_attached_to_varEPKNS_5enodeE.exit.thread

_ZNK3smt6theory18is_attached_to_varEPKNS_5enodeE.exit.thread: ; preds = %3, %_ZNK3smt6theory18is_attached_to_varEPKNS_5enodeE.exit
  %13 = load ptr, ptr %0, align 8, !tbaa !3
  %14 = load ptr, ptr %13, align 8
  %15 = tail call noundef i32 %14(ptr noundef nonnull align 8 dereferenceable(444) %0, ptr noundef nonnull %1)
  br label %16

16:                                               ; preds = %_ZNK3smt6theory18is_attached_to_varEPKNS_5enodeE.exit.thread, %_ZNK3smt6theory18is_attached_to_varEPKNS_5enodeE.exit
  ret void
}